target datalayout = "e-m:e-p270:32:32-p271:32:32-p272:64:64-i64:64-i128:128-f80:128-n8:16:32:64-S128"
target triple = "x86_64-pc-linux-gnu"

@.str.3 = private unnamed_addr constant [11 x i8] c"sll.hatype\00", align 1
@.str.15 = private unnamed_addr constant [10 x i8] c"sll.ltype\00", align 1
@.str.34 = private unnamed_addr constant [10 x i8] c"ethertype\00", align 1

; Function Attrs: inlinehint nounwind null_pointer_is_valid sspstrong uwtable
define internal zeroext i16 @pntoh16(ptr noundef %0) #7 {
  %2 = alloca ptr, align 8
  store ptr %0, ptr %2, align 8
  %3 = load ptr, ptr %2, align 8
  %4 = getelementptr i8, ptr %3, i64 0
  %5 = load i8, ptr %4, align 1
  %6 = zext i8 %5 to i16
  %7 = zext i16 %6 to i32
  %8 = shl i32 %7, 8
  %9 = load ptr, ptr %2, align 8
  %10 = getelementptr i8, ptr %9, i64 1
  %11 = load i8, ptr %10, align 1
  %12 = zext i8 %11 to i16
  %13 = zext i16 %12 to i32
  %14 = shl i32 %13, 0
  %15 = or i32 %8, %14
  %16 = trunc i32 %15 to i16
  ret i16 %16
}

; Function Attrs: null_pointer_is_valid sspstrong uwtable
define internal zeroext i1 @capture_sll2(ptr noundef %0, i32 noundef %1, i32 noundef %2, ptr noundef %3, ptr noundef %4) #0 {
  %6 = alloca i1, align 1
  %7 = alloca ptr, align 8
  %8 = alloca i32, align 4
  %9 = alloca i32, align 4
  %10 = alloca ptr, align 8
  %11 = alloca ptr, align 8
  %12 = alloca i16, align 2
  %13 = alloca i16, align 2
  %14 = alloca i32, align 4
  store ptr %0, ptr %7, align 8
  store i32 %1, ptr %8, align 4
  store i32 %2, ptr %9, align 4
  store ptr %3, ptr %10, align 8
  store ptr %4, ptr %11, align 8
  call void @llvm.lifetime.start.p0(i64 2, ptr %12) #10
  call void @llvm.lifetime.start.p0(i64 2, ptr %13) #10
  %15 = load i32, ptr %9, align 4
  %16 = icmp ule i32 20, %15
  br i1 %16, label %18, label %17

17:                                               ; preds = %5
  store i1 false, ptr %6, align 1
  store i32 1, ptr %14, align 4
  br label %53

18:                                               ; preds = %5
  %19 = load ptr, ptr %7, align 8
  %20 = getelementptr i8, ptr %19, i64 0
  %21 = call zeroext i16 @pntoh16(ptr noundef %20)
  store i16 %21, ptr %13, align 2
  %22 = load i16, ptr %13, align 2
  %23 = zext i16 %22 to i32
  %24 = icmp sle i32 %23, 1536
  br i1 %24, label %25, label %45

25:                                               ; preds = %18
  %26 = load ptr, ptr %7, align 8
  %27 = getelementptr i8, ptr %26, i64 8
  %28 = call zeroext i16 @pntoh16(ptr noundef %27)
  store i16 %28, ptr %12, align 2
  %29 = load i16, ptr %12, align 2
  %30 = zext i16 %29 to i32
  %31 = load ptr, ptr %7, align 8
  %32 = load i32, ptr %9, align 4
  %33 = load ptr, ptr %10, align 8
  %34 = load ptr, ptr %11, align 8
  %35 = call zeroext i1 @try_capture_dissector(ptr noundef @.str.3, i32 noundef %30, ptr noundef %31, i32 noundef 20, i32 noundef %32, ptr noundef %33, ptr noundef %34)
  br i1 %35, label %36, label %37

36:                                               ; preds = %25
  store i1 true, ptr %6, align 1
  store i32 1, ptr %14, align 4
  br label %53

37:                                               ; preds = %25
  %38 = load i16, ptr %13, align 2
  %39 = zext i16 %38 to i32
  %40 = load ptr, ptr %7, align 8
  %41 = load i32, ptr %9, align 4
  %42 = load ptr, ptr %10, align 8
  %43 = load ptr, ptr %11, align 8
  %44 = call zeroext i1 @try_capture_dissector(ptr noundef @.str.15, i32 noundef %39, ptr noundef %40, i32 noundef 20, i32 noundef %41, ptr noundef %42, ptr noundef %43)
  store i1 %44, ptr %6, align 1
  store i32 1, ptr %14, align 4
  br label %53

45:                                               ; preds = %18
  %46 = load i16, ptr %13, align 2
  %47 = zext i16 %46 to i32
  %48 = load ptr, ptr %7, align 8
  %49 = load i32, ptr %9, align 4
  %50 = load ptr, ptr %10, align 8
  %51 = load ptr, ptr %11, align 8
  %52 = call zeroext i1 @try_capture_dissector(ptr noundef @.str.34, i32 noundef %47, ptr noundef %48, i32 noundef 20, i32 noundef %49, ptr noundef %50, ptr noundef %51)
  store i1 %52, ptr %6, align 1
  store i32 1, ptr %14, align 4
  br label %53

53:                                               ; preds = %45, %37, %36, %17
  call void @llvm.lifetime.end.p0(i64 2, ptr %13) #10
  call void @llvm.lifetime.end.p0(i64 2, ptr %12) #10
  %54 = load i1, ptr %6, align 1
  ret i1 %54
}