; Function Attrs: null_pointer_is_valid sspstrong uwtable
define internal zeroext i1 @capture_sll2(ptr noundef %0, i32 %1, i32 noundef %2, ptr noundef %3, ptr noundef %4) #0 {
  %6 = icmp ugt i32 %2, 19
  br i1 %6, label %7, label %24

7:                                                ; preds = %5
  %.val = load i8, ptr %0, align 1
  %8 = getelementptr i8, ptr %0, i64 1
  %.val21 = load i8, ptr %8, align 1
  %9 = zext i8 %.val to i16
  %10 = shl nuw i16 %9, 8
  %11 = zext i8 %.val21 to i16
  %12 = or disjoint i16 %10, %11
  %13 = zext i16 %12 to i32
  %14 = icmp ult i16 %12, 1537
  br i1 %14, label %15, label %.sink.split

15:                                               ; preds = %7
  %16 = getelementptr i8, ptr %0, i64 8
  %.val22 = load i8, ptr %16, align 1
  %17 = getelementptr i8, ptr %0, i64 9
  %.val23 = load i8, ptr %17, align 1
  %18 = zext i8 %.val22 to i32
  %19 = shl nuw nsw i32 %18, 8
  %20 = zext i8 %.val23 to i32
  %21 = or disjoint i32 %19, %20
  %22 = tail call zeroext i1 @try_capture_dissector(ptr noundef nonnull @.str.3, i32 noundef %21, ptr noundef %0, i32 noundef 20, i32 noundef %2, ptr noundef %3, ptr noundef %4)
  br i1 %22, label %24, label %.sink.split

.sink.split:                                      ; preds = %7, %15
  %.str.34.sink = phi ptr [ @.str.15, %15 ], [ @.str.34, %7 ]
  %23 = tail call zeroext i1 @try_capture_dissector(ptr noundef nonnull %.str.34.sink, i32 noundef %13, ptr noundef %0, i32 noundef 20, i32 noundef %2, ptr noundef %3, ptr noundef %4)
  br label %24

24:                                               ; preds = %.sink.split, %15, %5
  %.0 = phi i1 [ false, %5 ], [ true, %15 ], [ %23, %.sink.split ]
  ret i1 %.0
}